target datalayout = "e-m:e-p270:32:32-p271:32:32-p272:64:64-i64:64-i128:128-f80:128-n8:16:32:64-S128"
target triple = "x86_64-pc-linux-gnu"

%struct.sockaddr_in = type { i16, i16, %struct.in_addr, [8 x i8] }
%struct.in_addr = type { i32 }

@stderr = external global ptr, align 8
@.str = private unnamed_addr constant [30 x i8] c"Assertion failed: %s (%s:%d)\0A\00", align 1
@.str.2 = private unnamed_addr constant [110 x i8] c"generated/home/dtcxzyw/WorkSpace/Projects/compilers/llvm-opt-benchmark/bench/libzmq/libzmq/src/udp_engine.cpp\00", align 1
@.str.3 = private unnamed_addr constant [12 x i8] c"%s (%s:%d)\0A\00", align 1
@.str.11 = private unnamed_addr constant [3 x i8] c"%d\00", align 1
@.str.12 = private unnamed_addr constant [29 x i8] c"port_len > 0 && port_len < 6\00", align 1

; Function Attrs: inlinehint mustprogress nounwind uwtable
define internal noundef zeroext i16 @_ZL10__bswap_16t(i16 noundef zeroext %0) #2 {
  %2 = alloca i16, align 2
  store i16 %0, ptr %2, align 2, !tbaa !118
  %3 = load i16, ptr %2, align 2, !tbaa !118
  %4 = zext i16 %3 to i32
  %5 = ashr i32 %4, 8
  %6 = and i32 %5, 255
  %7 = load i16, ptr %2, align 2, !tbaa !118
  %8 = zext i16 %7 to i32
  %9 = and i32 %8, 255
  %10 = shl i32 %9, 8
  %11 = or i32 %6, %10
  %12 = trunc i32 %11 to i16
  ret i16 %12
}

; Function Attrs: mustprogress uwtable
define void @_ZN3zmq12udp_engine_t15sockaddr_to_msgEPNS_5msg_tEPK11sockaddr_in(ptr noundef %0, ptr noundef %1) #0 align 2 {
  %3 = alloca ptr, align 8
  %4 = alloca ptr, align 8
  %5 = alloca ptr, align 8
  %6 = alloca %struct.in_addr, align 4
  %7 = alloca [6 x i8], align 1
  %8 = alloca i32, align 4
  %9 = alloca i64, align 8
  %10 = alloca i32, align 4
  %11 = alloca i32, align 4
  %12 = alloca ptr, align 8
  %13 = alloca ptr, align 8
  store ptr %0, ptr %3, align 8, !tbaa !112
  store ptr %1, ptr %4, align 8, !tbaa !114
  call void @llvm.lifetime.start.p0(i64 8, ptr %5) #21
  %14 = load ptr, ptr %4, align 8, !tbaa !114
  %15 = getelementptr inbounds nuw %struct.sockaddr_in, ptr %14, i32 0, i32 2
  call void @llvm.memcpy.p0.p0.i64(ptr align 4 %6, ptr align 4 %15, i64 4, i1 false), !tbaa.struct !104
  %16 = getelementptr inbounds nuw %struct.in_addr, ptr %6, i32 0, i32 0
  %17 = load i32, ptr %16, align 4
  %18 = call ptr @inet_ntoa(i32 %17) #21
  store ptr %18, ptr %5, align 8, !tbaa !84
  call void @llvm.lifetime.start.p0(i64 6, ptr %7) #21
  call void @llvm.lifetime.start.p0(i64 4, ptr %8) #21
  %19 = getelementptr inbounds [6 x i8], ptr %7, i64 0, i64 0
  %20 = load ptr, ptr %4, align 8, !tbaa !114
  %21 = getelementptr inbounds nuw %struct.sockaddr_in, ptr %20, i32 0, i32 1
  %22 = load i16, ptr %21, align 2, !tbaa !116
  %23 = call noundef zeroext i16 @_ZL10__bswap_16t(i16 noundef zeroext %22)
  %24 = zext i16 %23 to i32
  %25 = call i32 (ptr, i64, ptr, ...) @snprintf(ptr noundef %19, i64 noundef 6, ptr noundef @.str.11, i32 noundef %24) #21
  store i32 %25, ptr %8, align 4, !tbaa !83
  br label %26

26:                                               ; preds = %2
  %27 = load i32, ptr %8, align 4, !tbaa !83
  %28 = icmp sgt i32 %27, 0
  br i1 %28, label %29, label %32

29:                                               ; preds = %26
  %30 = load i32, ptr %8, align 4, !tbaa !83
  %31 = icmp slt i32 %30, 6
  br label %32

32:                                               ; preds = %29, %26
  %33 = phi i1 [ false, %26 ], [ %31, %29 ]
  %34 = xor i1 %33, true
  %35 = zext i1 %34 to i64
  %36 = call i64 @llvm.expect.i64(i64 %35, i64 0)
  %37 = icmp ne i64 %36, 0
  br i1 %37, label %38, label %43

38:                                               ; preds = %32
  %39 = load ptr, ptr @stderr, align 8, !tbaa !81
  %40 = call i32 (ptr, ptr, ...) @fprintf(ptr noundef %39, ptr noundef @.str, ptr noundef @.str.12, ptr noundef @.str.2, i32 noundef 345) #21
  %41 = load ptr, ptr @stderr, align 8, !tbaa !81
  %42 = call i32 @fflush(ptr noundef %41)
  call void @_ZN3zmq9zmq_abortEPKc(ptr noundef @.str.12)
  br label %43

43:                                               ; preds = %38, %32
  br label %44

44:                                               ; preds = %43
  br label %45

45:                                               ; preds = %44
  call void @llvm.lifetime.start.p0(i64 8, ptr %9) #21
  %46 = load ptr, ptr %5, align 8, !tbaa !84
  %47 = call i64 @strlen(ptr noundef %46) #25
  store i64 %47, ptr %9, align 8, !tbaa !117
  call void @llvm.lifetime.start.p0(i64 4, ptr %10) #21
  %48 = load i64, ptr %9, align 8, !tbaa !117
  %49 = trunc i64 %48 to i32
  %50 = add nsw i32 %49, 1
  %51 = load i32, ptr %8, align 4, !tbaa !83
  %52 = add nsw i32 %50, %51
  %53 = add nsw i32 %52, 1
  store i32 %53, ptr %10, align 4, !tbaa !83
  call void @llvm.lifetime.start.p0(i64 4, ptr %11) #21
  %54 = load ptr, ptr %3, align 8, !tbaa !112
  %55 = load i32, ptr %10, align 4, !tbaa !83
  %56 = sext i32 %55 to i64
  %57 = call noundef i32 @_ZN3zmq5msg_t9init_sizeEm(ptr noundef nonnull align 8 dereferenceable(64) %54, i64 noundef %56)
  store i32 %57, ptr %11, align 4, !tbaa !83
  br label %58

58:                                               ; preds = %45
  %59 = load i32, ptr %11, align 4, !tbaa !83
  %60 = icmp eq i32 %59, 0
  %61 = xor i1 %60, true
  %62 = zext i1 %61 to i64
  %63 = call i64 @llvm.expect.i64(i64 %62, i64 0)
  %64 = icmp ne i64 %63, 0
  br i1 %64, label %65, label %75

65:                                               ; preds = %58
  call void @llvm.lifetime.start.p0(i64 8, ptr %12) #21
  %66 = call ptr @__errno_location() #22
  %67 = load i32, ptr %66, align 4, !tbaa !83
  %68 = call ptr @strerror(i32 noundef %67) #21
  store ptr %68, ptr %12, align 8, !tbaa !84
  %69 = load ptr, ptr @stderr, align 8, !tbaa !81
  %70 = load ptr, ptr %12, align 8, !tbaa !84
  %71 = call i32 (ptr, ptr, ...) @fprintf(ptr noundef %69, ptr noundef @.str.3, ptr noundef %70, ptr noundef @.str.2, i32 noundef 351) #21
  %72 = load ptr, ptr @stderr, align 8, !tbaa !81
  %73 = call i32 @fflush(ptr noundef %72)
  %74 = load ptr, ptr %12, align 8, !tbaa !84
  call void @_ZN3zmq9zmq_abortEPKc(ptr noundef %74)
  call void @llvm.lifetime.end.p0(i64 8, ptr %12) #21
  br label %75

75:                                               ; preds = %65, %58
  br label %76

76:                                               ; preds = %75
  br label %77

77:                                               ; preds = %76
  %78 = load ptr, ptr %3, align 8, !tbaa !112
  call void @_ZN3zmq5msg_t9set_flagsEh(ptr noundef nonnull align 8 dereferenceable(64) %78, i8 noundef zeroext 1)
  call void @llvm.lifetime.start.p0(i64 8, ptr %13) #21
  %79 = load ptr, ptr %3, align 8, !tbaa !112
  %80 = call noundef ptr @_ZN3zmq5msg_t4dataEv(ptr noundef nonnull align 8 dereferenceable(64) %79)
  store ptr %80, ptr %13, align 8, !tbaa !84
  %81 = load ptr, ptr %13, align 8, !tbaa !84
  %82 = load ptr, ptr %5, align 8, !tbaa !84
  %83 = load i64, ptr %9, align 8, !tbaa !117
  call void @llvm.memcpy.p0.p0.i64(ptr align 1 %81, ptr align 1 %82, i64 %83, i1 false)
  %84 = load i64, ptr %9, align 8, !tbaa !117
  %85 = load ptr, ptr %13, align 8, !tbaa !84
  %86 = getelementptr inbounds nuw i8, ptr %85, i64 %84
  store ptr %86, ptr %13, align 8, !tbaa !84
  %87 = load ptr, ptr %13, align 8, !tbaa !84
  %88 = getelementptr inbounds nuw i8, ptr %87, i32 1
  store ptr %88, ptr %13, align 8, !tbaa !84
  store i8 58, ptr %87, align 1, !tbaa !87
  %89 = load ptr, ptr %13, align 8, !tbaa !84
  %90 = getelementptr inbounds [6 x i8], ptr %7, i64 0, i64 0
  %91 = load i32, ptr %8, align 4, !tbaa !83
  %92 = sext i32 %91 to i64
  call void @llvm.memcpy.p0.p0.i64(ptr align 1 %89, ptr align 1 %90, i64 %92, i1 false)
  %93 = load i32, ptr %8, align 4, !tbaa !83
  %94 = load ptr, ptr %13, align 8, !tbaa !84
  %95 = sext i32 %93 to i64
  %96 = getelementptr inbounds i8, ptr %94, i64 %95
  store ptr %96, ptr %13, align 8, !tbaa !84
  %97 = load ptr, ptr %13, align 8, !tbaa !84
  store i8 0, ptr %97, align 1, !tbaa !87
  call void @llvm.lifetime.end.p0(i64 8, ptr %13) #21
  call void @llvm.lifetime.end.p0(i64 4, ptr %11) #21
  call void @llvm.lifetime.end.p0(i64 4, ptr %10) #21
  call void @llvm.lifetime.end.p0(i64 8, ptr %9) #21
  call void @llvm.lifetime.end.p0(i64 4, ptr %8) #21
  call void @llvm.lifetime.end.p0(i64 6, ptr %7) #21
  call void @llvm.lifetime.end.p0(i64 8, ptr %5) #21
  ret void
}