; Function Attrs: mustprogress uwtable
define void @_ZN3zmq12udp_engine_t15sockaddr_to_msgEPNS_5msg_tEPK11sockaddr_in(ptr noundef %0, ptr noundef readonly captures(none) %1) local_unnamed_addr #0 align 2 {
  %3 = alloca [6 x i8], align 1
  %4 = getelementptr inbounds nuw i8, ptr %1, i64 4
  %.sroa.0.0.copyload = load i32, ptr %4, align 4, !tbaa !76
  %5 = tail call ptr @inet_ntoa(i32 %.sroa.0.0.copyload) #23
  call void @llvm.lifetime.start.p0(i64 6, ptr nonnull %3) #23
  %6 = getelementptr inbounds nuw i8, ptr %1, i64 2
  %7 = load i16, ptr %6, align 2, !tbaa !121
  %rev.i = tail call noundef i16 @llvm.bswap.i16(i16 %7)
  %8 = zext i16 %rev.i to i32
  %9 = call i32 (ptr, i64, ptr, ...) @snprintf(ptr noundef nonnull dereferenceable(1) %3, i64 noundef 6, ptr noundef nonnull @.str.11, i32 noundef %8) #23
  %10 = add i32 %9, -6
  %11 = icmp ult i32 %10, -5
  br i1 %11, label %12, label %17, !prof !72

12:                                               ; preds = %2
  %13 = load ptr, ptr @stderr, align 8, !tbaa !105
  %14 = tail call i32 (ptr, ptr, ...) @fprintf(ptr noundef %13, ptr noundef nonnull @.str, ptr noundef nonnull @.str.12, ptr noundef nonnull @.str.2, i32 noundef 345) #27
  %15 = load ptr, ptr @stderr, align 8, !tbaa !105
  %16 = tail call i32 @fflush(ptr noundef %15)
  tail call void @_ZN3zmq9zmq_abortEPKc(ptr noundef nonnull @.str.12)
  br label %17

17:                                               ; preds = %12, %2
  %18 = tail call i64 @strlen(ptr noundef nonnull dereferenceable(1) %5) #30
  %19 = trunc i64 %18 to i32
  %20 = add i32 %9, 2
  %21 = add i32 %20, %19
  %22 = sext i32 %21 to i64
  %23 = tail call noundef i32 @_ZN3zmq5msg_t9init_sizeEm(ptr noundef nonnull align 8 dereferenceable(64) %0, i64 noundef %22)
  %.not = icmp eq i32 %23, 0
  br i1 %.not, label %32, label %24, !prof !107

24:                                               ; preds = %17
  %25 = tail call ptr @__errno_location() #28
  %26 = load i32, ptr %25, align 4, !tbaa !76
  %27 = tail call ptr @strerror(i32 noundef %26) #23
  %28 = load ptr, ptr @stderr, align 8, !tbaa !105
  %29 = tail call i32 (ptr, ptr, ...) @fprintf(ptr noundef %28, ptr noundef nonnull @.str.3, ptr noundef %27, ptr noundef nonnull @.str.2, i32 noundef 351) #27
  %30 = load ptr, ptr @stderr, align 8, !tbaa !105
  %31 = tail call i32 @fflush(ptr noundef %30)
  tail call void @_ZN3zmq9zmq_abortEPKc(ptr noundef %27)
  br label %32

32:                                               ; preds = %24, %17
  tail call void @_ZN3zmq5msg_t9set_flagsEh(ptr noundef nonnull align 8 dereferenceable(64) %0, i8 noundef zeroext 1)
  %33 = tail call noundef ptr @_ZN3zmq5msg_t4dataEv(ptr noundef nonnull align 8 dereferenceable(64) %0)
  tail call void @llvm.memcpy.p0.p0.i64(ptr align 1 %33, ptr nonnull align 1 %5, i64 %18, i1 false)
  %34 = getelementptr inbounds nuw i8, ptr %33, i64 %18
  %35 = getelementptr inbounds nuw i8, ptr %34, i64 1
  store i8 58, ptr %34, align 1, !tbaa !14
  %36 = sext i32 %9 to i64
  call void @llvm.memcpy.p0.p0.i64(ptr nonnull align 1 %35, ptr nonnull align 1 %3, i64 %36, i1 false)
  %37 = getelementptr inbounds i8, ptr %35, i64 %36
  store i8 0, ptr %37, align 1, !tbaa !14
  call void @llvm.lifetime.end.p0(i64 6, ptr nonnull %3) #23
  ret void
}